target datalayout = "e-m:e-p270:32:32-p271:32:32-p272:64:64-i64:64-i128:128-f80:128-n8:16:32:64-S128"
target triple = "x86_64-pc-linux-gnu"

@.str.36 = private unnamed_addr constant [31 x i8] c"(error object is not a string)\00", align 1

; Function Attrs: nounwind uwtable
define internal i32 @report(ptr noundef %0, i32 noundef %1) #0 {
  %3 = alloca ptr, align 8
  %4 = alloca i32, align 4
  %5 = alloca ptr, align 8
  store ptr %0, ptr %3, align 8, !tbaa !14
  store i32 %1, ptr %4, align 4, !tbaa !4
  %6 = load i32, ptr %4, align 4, !tbaa !4
  %7 = icmp ne i32 %6, 0
  br i1 %7, label %8, label %21

8:                                                ; preds = %2
  %9 = load ptr, ptr %3, align 8, !tbaa !14
  %10 = call i32 @lua_type(ptr noundef %9, i32 noundef -1)
  %11 = icmp eq i32 %10, 0
  br i1 %11, label %21, label %12

12:                                               ; preds = %8
  call void @llvm.lifetime.start.p0(i64 8, ptr %5) #5
  %13 = load ptr, ptr %3, align 8, !tbaa !14
  %14 = call ptr @lua_tolstring(ptr noundef %13, i32 noundef -1, ptr noundef null)
  store ptr %14, ptr %5, align 8, !tbaa !11
  %15 = load ptr, ptr %5, align 8, !tbaa !11
  %16 = icmp eq ptr %15, null
  br i1 %16, label %17, label %18

17:                                               ; preds = %12
  store ptr @.str.36, ptr %5, align 8, !tbaa !11
  br label %18

18:                                               ; preds = %17, %12
  %19 = load ptr, ptr %5, align 8, !tbaa !11
  call void @l_message(ptr noundef %19)
  %20 = load ptr, ptr %3, align 8, !tbaa !14
  call void @lua_settop(ptr noundef %20, i32 noundef -2)
  call void @llvm.lifetime.end.p0(i64 8, ptr %5) #5
  br label %21

21:                                               ; preds = %18, %8, %2
  %22 = load i32, ptr %4, align 4, !tbaa !4
  ret i32 %22
}

; Function Attrs: nounwind uwtable
define internal i32 @dofile(ptr noundef %0, ptr noundef %1) #0 {
  %3 = alloca ptr, align 8
  %4 = alloca ptr, align 8
  %5 = alloca i32, align 4
  store ptr %0, ptr %3, align 8, !tbaa !14
  store ptr %1, ptr %4, align 8, !tbaa !11
  call void @llvm.lifetime.start.p0(i64 4, ptr %5) #5
  %6 = load ptr, ptr %3, align 8, !tbaa !14
  %7 = load ptr, ptr %4, align 8, !tbaa !11
  %8 = call i32 @luaL_loadfile(ptr noundef %6, ptr noundef %7)
  %9 = icmp ne i32 %8, 0
  br i1 %9, label %14, label %10

10:                                               ; preds = %2
  %11 = load ptr, ptr %3, align 8, !tbaa !14
  %12 = call i32 @docall(ptr noundef %11, i32 noundef 0, i32 noundef 1)
  %13 = icmp ne i32 %12, 0
  br label %14

14:                                               ; preds = %10, %2
  %15 = phi i1 [ true, %2 ], [ %13, %10 ]
  %16 = zext i1 %15 to i32
  store i32 %16, ptr %5, align 4, !tbaa !4
  %17 = load ptr, ptr %3, align 8, !tbaa !14
  %18 = load i32, ptr %5, align 4, !tbaa !4
  %19 = call i32 @report(ptr noundef %17, i32 noundef %18)
  call void @llvm.lifetime.end.p0(i64 4, ptr %5) #5
  ret i32 %19
}