; Function Attrs: nounwind uwtable
define internal fastcc void @dofile(ptr noundef %0, ptr noundef %1) unnamed_addr #0 {
  %3 = tail call i32 @luaL_loadfile(ptr noundef %0, ptr noundef %1) #9
  %.not = icmp eq i32 %3, 0
  br i1 %.not, label %4, label %.thread

4:                                                ; preds = %2
  %5 = tail call fastcc i32 @docall(ptr noundef %0, i32 noundef 0, i32 noundef 1)
  %.not5 = icmp eq i32 %5, 0
  br i1 %.not5, label %report.exit, label %.thread

.thread:                                          ; preds = %2, %4
  %6 = tail call i32 @lua_type(ptr noundef %0, i32 noundef -1) #9
  %7 = icmp eq i32 %6, 0
  br i1 %7, label %report.exit, label %8

8:                                                ; preds = %.thread
  %9 = tail call ptr @lua_tolstring(ptr noundef %0, i32 noundef -1, ptr noundef null) #9
  %10 = icmp eq ptr %9, null
  %spec.store.select.i = select i1 %10, ptr @.str.36, ptr %9
  tail call fastcc void @l_message(ptr noundef nonnull %spec.store.select.i)
  tail call void @lua_settop(ptr noundef %0, i32 noundef -2) #9
  br label %report.exit

report.exit:                                      ; preds = %4, %.thread, %8
  ret void
}